target datalayout = "e-m:e-p270:32:32-p271:32:32-p272:64:64-i64:64-i128:128-f80:128-n8:16:32:64-S128"
target triple = "x86_64-pc-linux-gnu"

; Function Attrs: mustprogress uwtable
define ptr @pkpy_new_vm(i1 noundef zeroext %0) #4 personality ptr @__gxx_personality_v0 {
  %2 = alloca i8, align 1
  %3 = alloca ptr, align 8
  %4 = alloca i32, align 4
  %5 = zext i1 %0 to i8
  store i8 %5, ptr %2, align 1
  %6 = call noalias noundef nonnull ptr @_Znwm(i64 noundef 264920) #17
  %7 = load i8, ptr %2, align 1
  %8 = trunc i8 %7 to i1
  invoke void @_ZN4pkpy2VMC1Eb(ptr noundef nonnull align 8 dereferenceable(264913) %6, i1 noundef zeroext %8)
          to label %9 unwind label %10

9:                                                ; preds = %1
  ret ptr %6

10:                                               ; preds = %1
  %11 = landingpad { ptr, i32 }
          cleanup
  %12 = extractvalue { ptr, i32 } %11, 0
  store ptr %12, ptr %3, align 8
  %13 = extractvalue { ptr, i32 } %11, 1
  store i32 %13, ptr %4, align 4
  call void @_ZdlPvm(ptr noundef %6, i64 noundef 264920) #18
  br label %14

14:                                               ; preds = %10
  %15 = load ptr, ptr %3, align 8
  %16 = load i32, ptr %4, align 4
  %17 = insertvalue { ptr, i32 } poison, ptr %15, 0
  %18 = insertvalue { ptr, i32 } %17, i32 %16, 1
  resume { ptr, i32 } %18
}