; Function Attrs: mustprogress uwtable
define noundef nonnull ptr @pkpy_new_vm(i1 noundef zeroext %0) local_unnamed_addr #4 personality ptr @__gxx_personality_v0 {
  %2 = tail call noalias noundef nonnull dereferenceable(264920) ptr @_Znwm(i64 noundef 264920) #30
  invoke void @_ZN4pkpy2VMC1Eb(ptr noundef nonnull align 8 dereferenceable(264913) %2, i1 noundef zeroext %0)
          to label %3 unwind label %4

3:                                                ; preds = %1
  ret ptr %2

4:                                                ; preds = %1
  %5 = landingpad { ptr, i32 }
          cleanup
  tail call void @_ZdlPvm(ptr noundef nonnull %2, i64 noundef 264920) #31
  resume { ptr, i32 } %5
}